; Function Attrs: mustprogress uwtable
define void @_Z11ConvertDictRKNSt7__cxx1112basic_stringIcSt11char_traitsIcESaIcEEESt10shared_ptrIN6opencc4DictEE(ptr dead_on_unwind noalias nocapture writable writeonly sret(%"class.std::shared_ptr.6") align 8 %0, ptr noundef nonnull align 8 dereferenceable(32) %1, ptr nocapture noundef readonly %2) local_unnamed_addr #3 personality ptr @__gxx_personality_v0 {
  %4 = alloca %"class.std::shared_ptr.0", align 8
  %5 = alloca %"class.std::shared_ptr.3", align 8
  %6 = tail call noundef i32 @_ZNKSt7__cxx1112basic_stringIcSt11char_traitsIcESaIcEE7compareEPKc(ptr noundef nonnull align 8 dereferenceable(32) %1, ptr noundef nonnull @.str.1) #11
  %7 = icmp eq i32 %6, 0
  %.sink.sroa.gep = getelementptr inbounds i8, ptr %5, i64 8
  br i1 %7, label %_ZNSt10shared_ptrIN6opencc8TextDictEED2Ev.exit, label %9

_ZNSt10shared_ptrIN6opencc8TextDictEED2Ev.exit:   ; preds = %3
  %.sink.sroa.gep17 = getelementptr inbounds i8, ptr %4, i64 8
  %8 = load ptr, ptr %2, align 8
  call void @_ZN6opencc8TextDict11NewFromDictERKNS_4DictE(ptr dead_on_unwind nonnull writable sret(%"class.std::shared_ptr.0") align 8 %4, ptr noundef nonnull align 8 dereferenceable(8) %8)
  br label %20

9:                                                ; preds = %3
  %10 = tail call noundef i32 @_ZNKSt7__cxx1112basic_stringIcSt11char_traitsIcESaIcEE7compareEPKc(ptr noundef nonnull align 8 dereferenceable(32) %1, ptr noundef nonnull @.str.2) #11
  %11 = icmp eq i32 %10, 0
  br i1 %11, label %16, label %12

12:                                               ; preds = %9
  %13 = tail call noundef i32 @_ZNKSt7__cxx1112basic_stringIcSt11char_traitsIcESaIcEE7compareEPKc(ptr noundef nonnull align 8 dereferenceable(32) %1, ptr noundef nonnull @.str.3) #11
  %14 = icmp eq i32 %13, 0
  br i1 %14, label %_ZNSt10shared_ptrIN6opencc10MarisaDictEED2Ev.exit, label %16

_ZNSt10shared_ptrIN6opencc10MarisaDictEED2Ev.exit: ; preds = %12
  %15 = load ptr, ptr %2, align 8
  call void @_ZN6opencc10MarisaDict11NewFromDictERKNS_4DictE(ptr dead_on_unwind nonnull writable sret(%"class.std::shared_ptr.3") align 8 %5, ptr noundef nonnull align 8 dereferenceable(8) %15)
  br label %20

16:                                               ; preds = %9, %12
  %17 = load ptr, ptr @stderr, align 8
  %18 = tail call noundef ptr @_ZNKSt7__cxx1112basic_stringIcSt11char_traitsIcESaIcEE5c_strEv(ptr noundef nonnull align 8 dereferenceable(32) %1) #11
  %19 = tail call i32 (ptr, ptr, ...) @fprintf(ptr noundef %17, ptr noundef nonnull @.str.4, ptr noundef %18) #13
  tail call void @exit(i32 noundef 2) #14
  unreachable

20:                                               ; preds = %_ZNSt10shared_ptrIN6opencc10MarisaDictEED2Ev.exit, %_ZNSt10shared_ptrIN6opencc8TextDictEED2Ev.exit
  %.sink.sroa.phi = phi ptr [ %.sink.sroa.gep, %_ZNSt10shared_ptrIN6opencc10MarisaDictEED2Ev.exit ], [ %.sink.sroa.gep17, %_ZNSt10shared_ptrIN6opencc8TextDictEED2Ev.exit ]
  %.sink = phi ptr [ %5, %_ZNSt10shared_ptrIN6opencc10MarisaDictEED2Ev.exit ], [ %4, %_ZNSt10shared_ptrIN6opencc8TextDictEED2Ev.exit ]
  %.sink16 = load ptr, ptr %.sink, align 8
  %21 = icmp eq ptr %.sink16, null
  %22 = getelementptr inbounds i8, ptr %.sink16, i64 8
  %spec.select.i.i4 = select i1 %21, ptr null, ptr %22
  store ptr %spec.select.i.i4, ptr %0, align 8
  %23 = getelementptr inbounds i8, ptr %0, i64 8
  %24 = load ptr, ptr %.sink.sroa.phi, align 8
  store ptr %24, ptr %23, align 8
  ret void
}